target datalayout = "e-m:e-p270:32:32-p271:32:32-p272:64:64-i64:64-i128:128-f80:128-n8:16:32:64-S128"
target triple = "x86_64-pc-linux-gnu"

%struct.rusage = type { %struct.timeval, %struct.timeval, %union.anon.16, %union.anon.17, %union.anon.18, %union.anon.19, %union.anon.20, %union.anon.21, %union.anon.22, %union.anon.23, %union.anon.24, %union.anon.25, %union.anon.26, %union.anon.27, %union.anon.28, %union.anon.29 }
%struct.timeval = type { i64, i64 }
%union.anon.16 = type { i64 }
%union.anon.17 = type { i64 }
%union.anon.18 = type { i64 }
%union.anon.19 = type { i64 }
%union.anon.20 = type { i64 }
%union.anon.21 = type { i64 }
%union.anon.22 = type { i64 }
%union.anon.23 = type { i64 }
%union.anon.24 = type { i64 }
%union.anon.25 = type { i64 }
%union.anon.26 = type { i64 }
%union.anon.27 = type { i64 }
%union.anon.28 = type { i64 }
%union.anon.29 = type { i64 }
%union.anon.38 = type { double }

@.str.22 = private unnamed_addr constant [10 x i8] c"getrusage\00", align 1
@rb_cProcessTms = internal global i64 0, align 8

; Function Attrs: inlinehint nounwind sspstrong uwtable
define internal i64 @RUBY_BIT_ROTL(i64 noundef %0, i32 noundef %1) #1 {
  %3 = alloca i64, align 8
  %4 = alloca i32, align 4
  store i64 %0, ptr %3, align 8, !tbaa !35
  store i32 %1, ptr %4, align 4, !tbaa !34
  %5 = load i64, ptr %3, align 8, !tbaa !35
  %6 = load i32, ptr %4, align 4, !tbaa !34
  %7 = sext i32 %6 to i64
  %8 = call i64 @llvm.fshl.i64(i64 %5, i64 %5, i64 %7)
  ret i64 %8
}

; Function Attrs: inlinehint nounwind sspstrong uwtable
define internal i64 @rb_float_new_inline(double noundef %0) #1 {
  %2 = alloca i64, align 8
  %3 = alloca double, align 8
  %4 = alloca %union.anon.38, align 8
  %5 = alloca i32, align 4
  %6 = alloca i32, align 4
  store double %0, ptr %3, align 8, !tbaa !188
  call void @llvm.lifetime.start.p0(i64 8, ptr %4) #27
  call void @llvm.lifetime.start.p0(i64 4, ptr %5) #27
  %7 = load double, ptr %3, align 8, !tbaa !188
  store double %7, ptr %4, align 8, !tbaa !66
  %8 = load i64, ptr %4, align 8, !tbaa !66
  %9 = lshr i64 %8, 60
  %10 = and i64 %9, 7
  %11 = trunc i64 %10 to i32
  store i32 %11, ptr %5, align 4, !tbaa !34
  %12 = load i64, ptr %4, align 8, !tbaa !66
  %13 = icmp ne i64 %12, 3458764513820540928
  br i1 %13, label %14, label %24

14:                                               ; preds = %1
  %15 = load i32, ptr %5, align 4, !tbaa !34
  %16 = sub i32 %15, 3
  %17 = and i32 %16, -2
  %18 = icmp ne i32 %17, 0
  br i1 %18, label %24, label %19

19:                                               ; preds = %14
  %20 = load i64, ptr %4, align 8, !tbaa !66
  %21 = call i64 @RUBY_BIT_ROTL(i64 noundef %20, i32 noundef 3)
  %22 = and i64 %21, -2
  %23 = or i64 %22, 2
  store i64 %23, ptr %2, align 8
  store i32 1, ptr %6, align 4
  br label %32

24:                                               ; preds = %14, %1
  %25 = load i64, ptr %4, align 8, !tbaa !66
  %26 = icmp eq i64 %25, 0
  br i1 %26, label %27, label %28

27:                                               ; preds = %24
  store i64 -9223372036854775806, ptr %2, align 8
  store i32 1, ptr %6, align 4
  br label %32

28:                                               ; preds = %24
  br label %29

29:                                               ; preds = %28
  %30 = load double, ptr %3, align 8, !tbaa !188
  %31 = call i64 @rb_float_new_in_heap(double noundef %30)
  store i64 %31, ptr %2, align 8
  store i32 1, ptr %6, align 4
  br label %32

32:                                               ; preds = %29, %27, %19
  call void @llvm.lifetime.end.p0(i64 4, ptr %5) #27
  call void @llvm.lifetime.end.p0(i64 8, ptr %4) #27
  %33 = load i64, ptr %2, align 8
  ret i64 %33
}

; Function Attrs: nounwind sspstrong uwtable
define dso_local i64 @rb_proc_times(i64 noundef %0) #0 {
  %2 = alloca i64, align 8
  %3 = alloca i64, align 8
  %4 = alloca i64, align 8
  %5 = alloca i64, align 8
  %6 = alloca i64, align 8
  %7 = alloca i64, align 8
  %8 = alloca %struct.rusage, align 8
  %9 = alloca %struct.rusage, align 8
  %10 = alloca i32, align 4
  %11 = alloca ptr, align 8
  %12 = alloca ptr, align 8
  %13 = alloca ptr, align 8
  %14 = alloca ptr, align 8
  %15 = alloca ptr, align 8
  %16 = alloca ptr, align 8
  %17 = alloca ptr, align 8
  %18 = alloca ptr, align 8
  store i64 %0, ptr %2, align 8, !tbaa !35
  call void @llvm.lifetime.start.p0(i64 8, ptr %3) #27
  call void @llvm.lifetime.start.p0(i64 8, ptr %4) #27
  call void @llvm.lifetime.start.p0(i64 8, ptr %5) #27
  call void @llvm.lifetime.start.p0(i64 8, ptr %6) #27
  call void @llvm.lifetime.start.p0(i64 8, ptr %7) #27
  call void @llvm.lifetime.start.p0(i64 144, ptr %8) #27
  call void @llvm.lifetime.start.p0(i64 144, ptr %9) #27
  %19 = call i32 @getrusage(i32 noundef 0, ptr noundef %8) #27
  %20 = icmp ne i32 %19, 0
  br i1 %20, label %24, label %21

21:                                               ; preds = %1
  %22 = call i32 @getrusage(i32 noundef -1, ptr noundef %9) #27
  %23 = icmp ne i32 %22, 0
  br i1 %23, label %24, label %31

24:                                               ; preds = %21, %1
  br label %25

25:                                               ; preds = %24
  call void @llvm.lifetime.start.p0(i64 4, ptr %10) #27
  %26 = call ptr @rb_errno_ptr()
  %27 = load i32, ptr %26, align 4, !tbaa !34
  store i32 %27, ptr %10, align 4, !tbaa !34
  %28 = load i32, ptr %10, align 4, !tbaa !34
  call void @rb_syserr_fail(i32 noundef %28, ptr noundef @.str.22) #30
  unreachable

29:                                               ; No predecessors!
  br label %30

30:                                               ; preds = %29
  br label %31

31:                                               ; preds = %30, %21
  %32 = getelementptr inbounds nuw %struct.rusage, ptr %8, i32 0, i32 0
  %33 = getelementptr inbounds nuw %struct.timeval, ptr %32, i32 0, i32 0
  %34 = load i64, ptr %33, align 8, !tbaa !178
  %35 = sitofp i64 %34 to double
  %36 = getelementptr inbounds nuw %struct.rusage, ptr %8, i32 0, i32 0
  %37 = getelementptr inbounds nuw %struct.timeval, ptr %36, i32 0, i32 1
  %38 = load i64, ptr %37, align 8, !tbaa !181
  %39 = sitofp i64 %38 to double
  %40 = fdiv double %39, 1.000000e+06
  %41 = fadd double %35, %40
  %42 = call i64 @rb_float_new_inline(double noundef %41)
  store i64 %42, ptr %3, align 8, !tbaa !35
  %43 = getelementptr inbounds nuw %struct.rusage, ptr %8, i32 0, i32 1
  %44 = getelementptr inbounds nuw %struct.timeval, ptr %43, i32 0, i32 0
  %45 = load i64, ptr %44, align 8, !tbaa !182
  %46 = sitofp i64 %45 to double
  %47 = getelementptr inbounds nuw %struct.rusage, ptr %8, i32 0, i32 1
  %48 = getelementptr inbounds nuw %struct.timeval, ptr %47, i32 0, i32 1
  %49 = load i64, ptr %48, align 8, !tbaa !183
  %50 = sitofp i64 %49 to double
  %51 = fdiv double %50, 1.000000e+06
  %52 = fadd double %46, %51
  %53 = call i64 @rb_float_new_inline(double noundef %52)
  store i64 %53, ptr %4, align 8, !tbaa !35
  %54 = getelementptr inbounds nuw %struct.rusage, ptr %9, i32 0, i32 0
  %55 = getelementptr inbounds nuw %struct.timeval, ptr %54, i32 0, i32 0
  %56 = load i64, ptr %55, align 8, !tbaa !178
  %57 = sitofp i64 %56 to double
  %58 = getelementptr inbounds nuw %struct.rusage, ptr %9, i32 0, i32 0
  %59 = getelementptr inbounds nuw %struct.timeval, ptr %58, i32 0, i32 1
  %60 = load i64, ptr %59, align 8, !tbaa !181
  %61 = sitofp i64 %60 to double
  %62 = fdiv double %61, 1.000000e+06
  %63 = fadd double %57, %62
  %64 = call i64 @rb_float_new_inline(double noundef %63)
  store i64 %64, ptr %5, align 8, !tbaa !35
  %65 = getelementptr inbounds nuw %struct.rusage, ptr %9, i32 0, i32 1
  %66 = getelementptr inbounds nuw %struct.timeval, ptr %65, i32 0, i32 0
  %67 = load i64, ptr %66, align 8, !tbaa !182
  %68 = sitofp i64 %67 to double
  %69 = getelementptr inbounds nuw %struct.rusage, ptr %9, i32 0, i32 1
  %70 = getelementptr inbounds nuw %struct.timeval, ptr %69, i32 0, i32 1
  %71 = load i64, ptr %70, align 8, !tbaa !183
  %72 = sitofp i64 %71 to double
  %73 = fdiv double %72, 1.000000e+06
  %74 = fadd double %68, %73
  %75 = call i64 @rb_float_new_inline(double noundef %74)
  store i64 %75, ptr %6, align 8, !tbaa !35
  %76 = load i64, ptr @rb_cProcessTms, align 8, !tbaa !35
  %77 = load i64, ptr %3, align 8, !tbaa !35
  %78 = load i64, ptr %4, align 8, !tbaa !35
  %79 = load i64, ptr %5, align 8, !tbaa !35
  %80 = load i64, ptr %6, align 8, !tbaa !35
  %81 = call i64 (i64, ...) @rb_struct_new(i64 noundef %76, i64 noundef %77, i64 noundef %78, i64 noundef %79, i64 noundef %80)
  store i64 %81, ptr %7, align 8, !tbaa !35
  call void @llvm.lifetime.start.p0(i64 8, ptr %11) #27
  store ptr %3, ptr %11, align 8, !tbaa !70
  call void asm sideeffect "", "*m,~{dirflag},~{fpsr},~{flags}"(ptr elementtype(ptr) %11) #27, !srcloc !184
  %82 = load ptr, ptr %11, align 8, !tbaa !70
  store ptr %82, ptr %12, align 8, !tbaa !70
  call void @llvm.lifetime.end.p0(i64 8, ptr %11) #27
  %83 = load ptr, ptr %12, align 8, !tbaa !70
  %84 = load volatile i64, ptr %83, align 8, !tbaa !35
  call void @llvm.lifetime.start.p0(i64 8, ptr %13) #27
  store ptr %4, ptr %13, align 8, !tbaa !70
  call void asm sideeffect "", "*m,~{dirflag},~{fpsr},~{flags}"(ptr elementtype(ptr) %13) #27, !srcloc !185
  %85 = load ptr, ptr %13, align 8, !tbaa !70
  store ptr %85, ptr %14, align 8, !tbaa !70
  call void @llvm.lifetime.end.p0(i64 8, ptr %13) #27
  %86 = load ptr, ptr %14, align 8, !tbaa !70
  %87 = load volatile i64, ptr %86, align 8, !tbaa !35
  call void @llvm.lifetime.start.p0(i64 8, ptr %15) #27
  store ptr %5, ptr %15, align 8, !tbaa !70
  call void asm sideeffect "", "*m,~{dirflag},~{fpsr},~{flags}"(ptr elementtype(ptr) %15) #27, !srcloc !186
  %88 = load ptr, ptr %15, align 8, !tbaa !70
  store ptr %88, ptr %16, align 8, !tbaa !70
  call void @llvm.lifetime.end.p0(i64 8, ptr %15) #27
  %89 = load ptr, ptr %16, align 8, !tbaa !70
  %90 = load volatile i64, ptr %89, align 8, !tbaa !35
  call void @llvm.lifetime.start.p0(i64 8, ptr %17) #27
  store ptr %6, ptr %17, align 8, !tbaa !70
  call void asm sideeffect "", "*m,~{dirflag},~{fpsr},~{flags}"(ptr elementtype(ptr) %17) #27, !srcloc !187
  %91 = load ptr, ptr %17, align 8, !tbaa !70
  store ptr %91, ptr %18, align 8, !tbaa !70
  call void @llvm.lifetime.end.p0(i64 8, ptr %17) #27
  %92 = load ptr, ptr %18, align 8, !tbaa !70
  %93 = load volatile i64, ptr %92, align 8, !tbaa !35
  %94 = load i64, ptr %7, align 8, !tbaa !35
  call void @llvm.lifetime.end.p0(i64 144, ptr %9) #27
  call void @llvm.lifetime.end.p0(i64 144, ptr %8) #27
  call void @llvm.lifetime.end.p0(i64 8, ptr %7) #27
  call void @llvm.lifetime.end.p0(i64 8, ptr %6) #27
  call void @llvm.lifetime.end.p0(i64 8, ptr %5) #27
  call void @llvm.lifetime.end.p0(i64 8, ptr %4) #27
  call void @llvm.lifetime.end.p0(i64 8, ptr %3) #27
  ret i64 %94
}