; Function Attrs: nounwind sspstrong uwtable
define dso_local i64 @rb_proc_times(i64 %0) #1 {
  %2 = alloca i64, align 8
  %3 = alloca i64, align 8
  %4 = alloca i64, align 8
  %5 = alloca i64, align 8
  %6 = alloca %struct.rusage, align 8
  %7 = alloca %struct.rusage, align 8
  %8 = alloca ptr, align 8
  %9 = alloca ptr, align 8
  %10 = alloca ptr, align 8
  %11 = alloca ptr, align 8
  call void @llvm.lifetime.start.p0(i64 8, ptr nonnull %2) #27
  call void @llvm.lifetime.start.p0(i64 8, ptr nonnull %3) #27
  call void @llvm.lifetime.start.p0(i64 8, ptr nonnull %4) #27
  call void @llvm.lifetime.start.p0(i64 8, ptr nonnull %5) #27
  call void @llvm.lifetime.start.p0(i64 144, ptr nonnull %6) #27
  call void @llvm.lifetime.start.p0(i64 144, ptr nonnull %7) #27
  %12 = call i32 @getrusage(i32 noundef 0, ptr noundef nonnull %6) #27
  %.not = icmp eq i32 %12, 0
  br i1 %.not, label %13, label %15

13:                                               ; preds = %1
  %14 = call i32 @getrusage(i32 noundef -1, ptr noundef nonnull %7) #27
  %.not5 = icmp eq i32 %14, 0
  br i1 %.not5, label %18, label %15

15:                                               ; preds = %1, %13
  %16 = call ptr @rb_errno_ptr() #27
  %17 = load i32, ptr %16, align 4, !tbaa !60
  call void @rb_syserr_fail(i32 noundef %17, ptr noundef nonnull @.str.22) #29
  unreachable

18:                                               ; preds = %13
  %19 = load i64, ptr %6, align 8, !tbaa !240
  %20 = sitofp i64 %19 to double
  %21 = getelementptr inbounds nuw i8, ptr %6, i64 8
  %22 = load i64, ptr %21, align 8, !tbaa !243
  %23 = sitofp i64 %22 to double
  %24 = fdiv double %23, 1.000000e+06
  %25 = fadd double %24, %20
  %26 = bitcast double %25 to i64
  %cond.i = icmp eq i64 %26, 3458764513820540928
  br i1 %cond.i, label %38, label %27

27:                                               ; preds = %18
  %28 = lshr i64 %26, 60
  %29 = trunc nuw nsw i64 %28 to i32
  %30 = and i32 %29, 7
  %31 = add nsw i32 %30, -3
  %.not7.i = icmp ult i32 %31, 2
  br i1 %.not7.i, label %32, label %36

32:                                               ; preds = %27
  %33 = call noundef i64 @llvm.fshl.i64(i64 range(i64 3458764513820540929, 3458764513820540928) %26, i64 range(i64 3458764513820540929, 3458764513820540928) %26, i64 3)
  %34 = and i64 %33, -4
  %35 = or disjoint i64 %34, 2
  br label %rb_float_new_inline.exit

36:                                               ; preds = %27
  %37 = icmp eq i64 %26, 0
  br i1 %37, label %rb_float_new_inline.exit, label %38

38:                                               ; preds = %36, %18
  %39 = call i64 @rb_float_new_in_heap(double noundef %25) #27
  br label %rb_float_new_inline.exit

rb_float_new_inline.exit:                         ; preds = %32, %36, %38
  %40 = phi i64 [ %39, %38 ], [ %35, %32 ], [ -9223372036854775806, %36 ]
  store i64 %40, ptr %2, align 8, !tbaa !43
  %41 = getelementptr inbounds nuw i8, ptr %6, i64 16
  %42 = load i64, ptr %41, align 8, !tbaa !244
  %43 = sitofp i64 %42 to double
  %44 = getelementptr inbounds nuw i8, ptr %6, i64 24
  %45 = load i64, ptr %44, align 8, !tbaa !245
  %46 = sitofp i64 %45 to double
  %47 = fdiv double %46, 1.000000e+06
  %48 = fadd double %47, %43
  %49 = bitcast double %48 to i64
  %cond.i6 = icmp eq i64 %49, 3458764513820540928
  br i1 %cond.i6, label %61, label %50

50:                                               ; preds = %rb_float_new_inline.exit
  %51 = lshr i64 %49, 60
  %52 = trunc nuw nsw i64 %51 to i32
  %53 = and i32 %52, 7
  %54 = add nsw i32 %53, -3
  %.not7.i7 = icmp ult i32 %54, 2
  br i1 %.not7.i7, label %55, label %59

55:                                               ; preds = %50
  %56 = call noundef i64 @llvm.fshl.i64(i64 range(i64 3458764513820540929, 3458764513820540928) %49, i64 range(i64 3458764513820540929, 3458764513820540928) %49, i64 3)
  %57 = and i64 %56, -4
  %58 = or disjoint i64 %57, 2
  br label %rb_float_new_inline.exit9

59:                                               ; preds = %50
  %60 = icmp eq i64 %49, 0
  br i1 %60, label %rb_float_new_inline.exit9, label %61

61:                                               ; preds = %59, %rb_float_new_inline.exit
  %62 = call i64 @rb_float_new_in_heap(double noundef %48) #27
  br label %rb_float_new_inline.exit9

rb_float_new_inline.exit9:                        ; preds = %55, %59, %61
  %63 = phi i64 [ %62, %61 ], [ %58, %55 ], [ -9223372036854775806, %59 ]
  store i64 %63, ptr %3, align 8, !tbaa !43
  %64 = load i64, ptr %7, align 8, !tbaa !240
  %65 = sitofp i64 %64 to double
  %66 = getelementptr inbounds nuw i8, ptr %7, i64 8
  %67 = load i64, ptr %66, align 8, !tbaa !243
  %68 = sitofp i64 %67 to double
  %69 = fdiv double %68, 1.000000e+06
  %70 = fadd double %69, %65
  %71 = bitcast double %70 to i64
  %cond.i10 = icmp eq i64 %71, 3458764513820540928
  br i1 %cond.i10, label %83, label %72

72:                                               ; preds = %rb_float_new_inline.exit9
  %73 = lshr i64 %71, 60
  %74 = trunc nuw nsw i64 %73 to i32
  %75 = and i32 %74, 7
  %76 = add nsw i32 %75, -3
  %.not7.i11 = icmp ult i32 %76, 2
  br i1 %.not7.i11, label %77, label %81

77:                                               ; preds = %72
  %78 = call noundef i64 @llvm.fshl.i64(i64 range(i64 3458764513820540929, 3458764513820540928) %71, i64 range(i64 3458764513820540929, 3458764513820540928) %71, i64 3)
  %79 = and i64 %78, -4
  %80 = or disjoint i64 %79, 2
  br label %rb_float_new_inline.exit13

81:                                               ; preds = %72
  %82 = icmp eq i64 %71, 0
  br i1 %82, label %rb_float_new_inline.exit13, label %83

83:                                               ; preds = %81, %rb_float_new_inline.exit9
  %84 = call i64 @rb_float_new_in_heap(double noundef %70) #27
  br label %rb_float_new_inline.exit13

rb_float_new_inline.exit13:                       ; preds = %77, %81, %83
  %85 = phi i64 [ %84, %83 ], [ %80, %77 ], [ -9223372036854775806, %81 ]
  store i64 %85, ptr %4, align 8, !tbaa !43
  %86 = getelementptr inbounds nuw i8, ptr %7, i64 16
  %87 = load i64, ptr %86, align 8, !tbaa !244
  %88 = sitofp i64 %87 to double
  %89 = getelementptr inbounds nuw i8, ptr %7, i64 24
  %90 = load i64, ptr %89, align 8, !tbaa !245
  %91 = sitofp i64 %90 to double
  %92 = fdiv double %91, 1.000000e+06
  %93 = fadd double %92, %88
  %94 = bitcast double %93 to i64
  %cond.i14 = icmp eq i64 %94, 3458764513820540928
  br i1 %cond.i14, label %106, label %95

95:                                               ; preds = %rb_float_new_inline.exit13
  %96 = lshr i64 %94, 60
  %97 = trunc nuw nsw i64 %96 to i32
  %98 = and i32 %97, 7
  %99 = add nsw i32 %98, -3
  %.not7.i15 = icmp ult i32 %99, 2
  br i1 %.not7.i15, label %100, label %104

100:                                              ; preds = %95
  %101 = call noundef i64 @llvm.fshl.i64(i64 range(i64 3458764513820540929, 3458764513820540928) %94, i64 range(i64 3458764513820540929, 3458764513820540928) %94, i64 3)
  %102 = and i64 %101, -4
  %103 = or disjoint i64 %102, 2
  br label %rb_float_new_inline.exit17

104:                                              ; preds = %95
  %105 = icmp eq i64 %94, 0
  br i1 %105, label %rb_float_new_inline.exit17, label %106

106:                                              ; preds = %104, %rb_float_new_inline.exit13
  %107 = call i64 @rb_float_new_in_heap(double noundef %93) #27
  br label %rb_float_new_inline.exit17

rb_float_new_inline.exit17:                       ; preds = %100, %104, %106
  %.0.i16 = phi i64 [ %107, %106 ], [ %103, %100 ], [ -9223372036854775806, %104 ]
  store i64 %.0.i16, ptr %5, align 8, !tbaa !43
  %108 = load i64, ptr @rb_cProcessTms, align 8, !tbaa !43
  %109 = call i64 (i64, ...) @rb_struct_new(i64 noundef %108, i64 noundef %40, i64 noundef %63, i64 noundef %85, i64 noundef %.0.i16) #27
  call void @llvm.lifetime.start.p0(i64 8, ptr nonnull %8) #27
  store ptr %2, ptr %8, align 8, !tbaa !75
  call void asm sideeffect "", "*m,~{dirflag},~{fpsr},~{flags}"(ptr nonnull elementtype(ptr) %8) #27, !srcloc !246
  %110 = load ptr, ptr %8, align 8, !tbaa !75
  call void @llvm.lifetime.end.p0(i64 8, ptr nonnull %8) #27
  %111 = load volatile i64, ptr %110, align 8, !tbaa !43
  call void @llvm.lifetime.start.p0(i64 8, ptr nonnull %9) #27
  store ptr %3, ptr %9, align 8, !tbaa !75
  call void asm sideeffect "", "*m,~{dirflag},~{fpsr},~{flags}"(ptr nonnull elementtype(ptr) %9) #27, !srcloc !247
  %112 = load ptr, ptr %9, align 8, !tbaa !75
  call void @llvm.lifetime.end.p0(i64 8, ptr nonnull %9) #27
  %113 = load volatile i64, ptr %112, align 8, !tbaa !43
  call void @llvm.lifetime.start.p0(i64 8, ptr nonnull %10) #27
  store ptr %4, ptr %10, align 8, !tbaa !75
  call void asm sideeffect "", "*m,~{dirflag},~{fpsr},~{flags}"(ptr nonnull elementtype(ptr) %10) #27, !srcloc !248
  %114 = load ptr, ptr %10, align 8, !tbaa !75
  call void @llvm.lifetime.end.p0(i64 8, ptr nonnull %10) #27
  %115 = load volatile i64, ptr %114, align 8, !tbaa !43
  call void @llvm.lifetime.start.p0(i64 8, ptr nonnull %11) #27
  store ptr %5, ptr %11, align 8, !tbaa !75
  call void asm sideeffect "", "*m,~{dirflag},~{fpsr},~{flags}"(ptr nonnull elementtype(ptr) %11) #27, !srcloc !249
  %116 = load ptr, ptr %11, align 8, !tbaa !75
  call void @llvm.lifetime.end.p0(i64 8, ptr nonnull %11) #27
  %117 = load volatile i64, ptr %116, align 8, !tbaa !43
  call void @llvm.lifetime.end.p0(i64 144, ptr nonnull %7) #27
  call void @llvm.lifetime.end.p0(i64 144, ptr nonnull %6) #27
  call void @llvm.lifetime.end.p0(i64 8, ptr nonnull %5) #27
  call void @llvm.lifetime.end.p0(i64 8, ptr nonnull %4) #27
  call void @llvm.lifetime.end.p0(i64 8, ptr nonnull %3) #27
  call void @llvm.lifetime.end.p0(i64 8, ptr nonnull %2) #27
  ret i64 %109
}